target datalayout = "e-m:e-p270:32:32-p271:32:32-p272:64:64-i64:64-i128:128-f80:128-n8:16:32:64-S128"
target triple = "x86_64-pc-linux-gnu"

%"class.smt::theory_intblast::translator_trail" = type { %class.bv2int_translator_trail, ptr }
%class.bv2int_translator_trail = type { ptr }
%class.arith_util = type { ptr, ptr }
%class.bv_util = type { %class.bv_recognizers, ptr, ptr }
%class.bv_recognizers = type { i32 }
%class.ptr_vector.51 = type { %class.vector.52 }
%class.vector.52 = type { ptr }
%class.ptr_vector.163 = type { %class.vector.164 }
%class.vector.164 = type { ptr }
%class.ptr_vector = type { %class.vector.3 }
%class.vector.3 = type { ptr }
%class.svector.4 = type { %class.vector.5 }
%class.vector.5 = type { ptr }
%class.ref_vector = type { %class.ref_vector_core }
%class.ref_vector_core = type { %class.ref_manager_wrapper, %class.ptr_vector }
%class.ref_manager_wrapper = type { ptr }
%class.ref_vector.151 = type { %class.ref_vector_core.152 }
%class.ref_vector_core.152 = type { %class.ref_manager_wrapper.153, %class.ptr_vector.154 }
%class.ref_manager_wrapper.153 = type { ptr }
%class.ptr_vector.154 = type { %class.vector.155 }
%class.vector.155 = type { ptr }
%"class.smt::theory_intblast" = type { %"class.smt::theory.base", %"class.smt::theory_intblast::translator_trail", %class.bv2int_translator, %class.bv_util, %class.arith_util, i32, i32, ptr }
%"class.smt::theory.base" = type <{ ptr, i32, [4 x i8], ptr, ptr, %class.ptr_vector.163, %class.svector.4, i32, i8 }>
%class.bv2int_translator = type <{ ptr, ptr, %class.bv_util, %class.arith_util, %class.obj_map.266, %class.ref_vector, %class.ref_vector, %class.ref_vector.151, %class.ptr_vector.51, %class.ptr_vector.51, %class.ref_vector, %class.ref_vector, i8, [7 x i8] }>
%class.obj_map.266 = type { %class.core_hashtable.267 }
%class.core_hashtable.267 = type <{ ptr, i32, i32, i32, [4 x i8] }>
%"class.smt::theory" = type <{ ptr, i32, [4 x i8], ptr, ptr, %class.ptr_vector.163, %class.svector.4, i32, i8, [3 x i8] }>

; Function Attrs: mustprogress uwtable
define hidden void @_ZN3smt15theory_intblast10init_modelERNS_15model_generatorE(ptr noundef nonnull align 8 dereferenceable(312) %0, ptr noundef nonnull align 8 dereferenceable(104) %1) unnamed_addr #6 align 2 {
  %3 = alloca ptr, align 8
  %4 = alloca ptr, align 8
  store ptr %0, ptr %3, align 8, !tbaa !43
  store ptr %1, ptr %4, align 8, !tbaa !617
  %5 = load ptr, ptr %3, align 8
  %6 = call noalias noundef ptr @_ZN6memory8allocateEm(i64 noundef 112)
  %7 = getelementptr inbounds nuw %"class.smt::theory", ptr %5, i32 0, i32 4
  %8 = load ptr, ptr %7, align 8, !tbaa !47
  call void @_ZN10bv_factoryC1ER11ast_manager(ptr noundef nonnull align 8 dereferenceable(112) %6, ptr noundef nonnull align 8 dereferenceable(976) %8)
  %9 = getelementptr inbounds nuw %"class.smt::theory_intblast", ptr %5, i32 0, i32 7
  store ptr %6, ptr %9, align 8, !tbaa !86
  %10 = load ptr, ptr %4, align 8, !tbaa !617
  %11 = getelementptr inbounds nuw %"class.smt::theory_intblast", ptr %5, i32 0, i32 7
  %12 = load ptr, ptr %11, align 8, !tbaa !86
  call void @_ZN3smt15model_generator16register_factoryEP13value_factory(ptr noundef nonnull align 8 dereferenceable(104) %10, ptr noundef %12)
  ret void
}