; Function Attrs: mustprogress uwtable
define hidden void @_ZN3smt15theory_intblast10init_modelERNS_15model_generatorE(ptr noundef nonnull align 8 captures(none) dereferenceable(312) initializes((304, 312)) %0, ptr noundef nonnull align 8 dereferenceable(104) %1) unnamed_addr #4 align 2 {
  %3 = tail call noalias noundef ptr @_ZN6memory8allocateEm(i64 noundef 112)
  %4 = getelementptr inbounds nuw i8, ptr %0, i64 24
  %5 = load ptr, ptr %4, align 8, !tbaa !522
  tail call void @_ZN10bv_factoryC1ER11ast_manager(ptr noundef nonnull align 8 dereferenceable(112) %3, ptr noundef nonnull align 8 dereferenceable(976) %5)
  %6 = getelementptr inbounds nuw i8, ptr %0, i64 304
  store ptr %3, ptr %6, align 8, !tbaa !599
  tail call void @_ZN3smt15model_generator16register_factoryEP13value_factory(ptr noundef nonnull align 8 dereferenceable(104) %1, ptr noundef nonnull %3)
  ret void
}